target datalayout = "e-m:e-p270:32:32-p271:32:32-p272:64:64-i64:64-i128:128-f80:128-n8:16:32:64-S128"
target triple = "x86_64-pc-linux-gnu"

%struct._zend_libxml_globals = type { %struct._zval_struct, %struct.smart_str, ptr, %struct._zend_fcall_info_cache, i8 }
%struct._zval_struct = type { %union._zend_value, %union.anon, %union.anon.2 }
%union._zend_value = type { i64 }
%union.anon = type { i32 }
%union.anon.2 = type { i32 }
%struct.smart_str = type { ptr, i64 }
%struct._zend_fcall_info_cache = type { ptr, ptr, ptr, ptr, ptr }
%struct._xmlError = type { i32, i32, ptr, i32, ptr, i32, ptr, ptr, ptr, i32, i32, ptr, ptr }

@libxml_globals = internal global %struct._zend_libxml_globals zeroinitializer, align 8
@.str.4 = private unnamed_addr constant [3 x i8] c"%s\00", align 1

; Function Attrs: nounwind uwtable
define internal void @_php_list_set_error_structure(ptr noundef %0, ptr noundef %1, i32 noundef %2, i32 noundef %3) #0 {
  %5 = alloca ptr, align 8
  %6 = alloca ptr, align 8
  %7 = alloca i32, align 4
  %8 = alloca i32, align 4
  %9 = alloca %struct._xmlError, align 8
  %10 = alloca i32, align 4
  store ptr %0, ptr %5, align 8
  store ptr %1, ptr %6, align 8
  store i32 %2, ptr %7, align 4
  store i32 %3, ptr %8, align 4
  call void @llvm.memset.p0.i64(ptr align 8 %9, i8 0, i64 88, i1 false)
  %11 = load ptr, ptr %5, align 8
  %12 = icmp ne ptr %11, null
  br i1 %12, label %13, label %16

13:                                               ; preds = %4
  %14 = load ptr, ptr %5, align 8
  %15 = call i32 @xmlCopyError(ptr noundef %14, ptr noundef %9)
  store i32 %15, ptr %10, align 4
  br label %26

16:                                               ; preds = %4
  %17 = getelementptr inbounds %struct._xmlError, ptr %9, i32 0, i32 1
  store i32 1, ptr %17, align 4
  %18 = getelementptr inbounds %struct._xmlError, ptr %9, i32 0, i32 3
  store i32 2, ptr %18, align 8
  %19 = load i32, ptr %7, align 4
  %20 = getelementptr inbounds %struct._xmlError, ptr %9, i32 0, i32 5
  store i32 %19, ptr %20, align 8
  %21 = load i32, ptr %8, align 4
  %22 = getelementptr inbounds %struct._xmlError, ptr %9, i32 0, i32 10
  store i32 %21, ptr %22, align 4
  %23 = load ptr, ptr %6, align 8
  %24 = call ptr @xmlStrdup(ptr noundef %23)
  %25 = getelementptr inbounds %struct._xmlError, ptr %9, i32 0, i32 2
  store ptr %24, ptr %25, align 8
  store i32 0, ptr %10, align 4
  br label %26

26:                                               ; preds = %16, %13
  %27 = load i32, ptr %10, align 4
  %28 = icmp eq i32 %27, 0
  br i1 %28, label %29, label %31

29:                                               ; preds = %26
  %30 = load ptr, ptr getelementptr inbounds (%struct._zend_libxml_globals, ptr @libxml_globals, i32 0, i32 2), align 8
  call void @zend_llist_add_element(ptr noundef %30, ptr noundef %9)
  br label %31

31:                                               ; preds = %29, %26
  ret void
}

; Function Attrs: nounwind uwtable
define void @php_libxml_issue_error(i32 noundef %0, ptr noundef %1) #0 {
  %3 = alloca i32, align 4
  %4 = alloca ptr, align 8
  store i32 %0, ptr %3, align 4
  store ptr %1, ptr %4, align 8
  %5 = load ptr, ptr getelementptr inbounds (%struct._zend_libxml_globals, ptr @libxml_globals, i32 0, i32 2), align 8
  %6 = icmp ne ptr %5, null
  br i1 %6, label %7, label %9

7:                                                ; preds = %2
  %8 = load ptr, ptr %4, align 8
  call void @_php_list_set_error_structure(ptr noundef null, ptr noundef %8, i32 noundef 0, i32 noundef 0)
  br label %12

9:                                                ; preds = %2
  %10 = load i32, ptr %3, align 4
  %11 = load ptr, ptr %4, align 8
  call void (ptr, i32, ptr, ...) @php_error_docref(ptr noundef null, i32 noundef %10, ptr noundef @.str.4, ptr noundef %11)
  br label %12

12:                                               ; preds = %9, %7
  ret void
}