; Function Attrs: nounwind uwtable
define void @php_libxml_issue_error(i32 noundef %0, ptr noundef %1) local_unnamed_addr #0 {
  %3 = alloca %struct._xmlError, align 8
  %4 = load ptr, ptr getelementptr inbounds (%struct._zend_libxml_globals, ptr @libxml_globals, i64 0, i32 2), align 8
  %.not = icmp eq ptr %4, null
  br i1 %.not, label %12, label %5

5:                                                ; preds = %2
  call void @llvm.lifetime.start.p0(i64 88, ptr nonnull %3)
  call void @llvm.memset.p0.i64(ptr noundef nonnull align 8 dereferenceable(88) %3, i8 0, i64 88, i1 false)
  %6 = getelementptr inbounds i8, ptr %3, i64 4
  store i32 1, ptr %6, align 4
  %7 = getelementptr inbounds i8, ptr %3, i64 16
  store i32 2, ptr %7, align 8
  %8 = getelementptr inbounds i8, ptr %3, i64 68
  store i32 0, ptr %8, align 4
  %9 = tail call ptr @xmlStrdup(ptr noundef %1) #17
  %10 = getelementptr inbounds i8, ptr %3, i64 8
  store ptr %9, ptr %10, align 8
  %11 = load ptr, ptr getelementptr inbounds (%struct._zend_libxml_globals, ptr @libxml_globals, i64 0, i32 2), align 8
  call void @zend_llist_add_element(ptr noundef %11, ptr noundef nonnull %3) #17
  call void @llvm.lifetime.end.p0(i64 88, ptr nonnull %3)
  br label %13

12:                                               ; preds = %2
  tail call void (ptr, i32, ptr, ...) @php_error_docref(ptr noundef null, i32 noundef %0, ptr noundef nonnull @.str.4, ptr noundef %1) #17
  br label %13

13:                                               ; preds = %12, %5
  ret void
}